Certificate:
    Data:
        Version: 3 (0x2)
        Serial Number: 10 (0xa)
        Signature Algorithm: sha256WithRSAEncryption
        Issuer: C=CZ, ST=Czech Republic, L=Klasterec nad Ohri, O=lhs, OU=intranet.local, CN=Certification authority/emailAddress=radek.kadner@gmail.com
        Validity
            Not Before: Jul 31 23:32:19 2022 GMT
            Not After : Jul 31 23:32:19 2023 GMT
        Subject: C=CZ, ST=Czech Republic, L=Klasterec nad Ohri, O=docker, OU=traefik.local, CN=docker.traefik.local/emailAddress=radek.kadner@gmail.com
        Subject Public Key Info:
            Public Key Algorithm: rsaEncryption
                RSA Public-Key: (2048 bit)
                Modulus:
                    00:ca:6f:cc:3c:bf:1b:b5:ac:53:72:3c:59:a3:8f:
                    f3:81:24:d4:e7:fe:f8:b2:f0:8b:ae:fe:8e:5a:0e:
                    f9:2d:09:92:9f:e8:2f:16:8a:3f:79:91:19:5c:40:
                    4f:b0:13:fb:e4:e2:97:25:55:de:62:88:ea:23:52:
                    c1:c8:13:37:41:2b:86:3b:15:84:4b:32:69:8b:17:
                    64:1e:4f:10:cb:b4:f7:c2:50:f8:00:cc:d7:2d:30:
                    84:0d:1a:c6:6b:18:56:f9:e8:48:42:ad:8d:cb:0b:
                    4e:5a:ae:0c:a8:a2:60:0d:21:d9:3a:f2:d5:ef:95:
                    a6:e2:ca:11:55:51:57:e7:ef:e5:db:61:9e:2a:23:
                    08:40:21:7b:00:20:b2:f8:58:2c:e1:fb:42:ff:1a:
                    59:8c:c4:b1:15:e8:6f:55:45:9f:1c:23:d6:33:cd:
                    ad:d5:da:2f:3e:7d:80:4a:b8:8a:b7:94:0f:42:d7:
                    50:d7:d7:fa:79:8c:e5:76:6a:16:14:f9:3d:1b:c4:
                    f2:e7:b2:23:2f:23:c4:7e:f5:0d:ed:43:40:46:c0:
                    ad:61:dd:97:b1:18:03:3e:7f:80:c4:ae:21:4a:8e:
                    31:7a:81:e6:cf:71:b4:1f:7e:49:f6:63:15:e0:cf:
                    82:08:cd:0d:47:42:bc:78:87:ec:2d:bd:1e:44:11:
                    f6:51
                Exponent: 65537 (0x10001)
        X509v3 extensions:
            X509v3 Basic Constraints: 
                CA:FALSE
            Netscape Comment: 
                OpenSSL Generated Certificate
            X509v3 Subject Key Identifier: 
                36:64:24:10:84:04:FF:18:CD:F4:6F:42:9A:97:18:82:BB:43:A5:0F
            X509v3 Authority Key Identifier: 
                keyid:D8:A0:B6:95:86:53:A1:29:BB:6C:70:E8:D0:26:1D:6F:95:04:08:88

    Signature Algorithm: sha256WithRSAEncryption
         14:73:d1:07:3e:f7:2d:64:dc:1f:4f:bc:20:2a:bb:2d:ad:20:
         76:15:45:c8:89:68:82:56:d0:31:e6:4a:0a:79:79:9e:50:e3:
         69:06:c0:92:6f:f6:bd:c9:ff:89:03:03:55:c8:e3:a5:28:62:
         11:65:de:4e:b5:43:36:10:7b:5c:13:55:4e:a7:cd:12:74:07:
         4c:c5:0c:e7:92:9a:90:f4:0d:76:31:6b:d6:e3:f6:cf:0a:bb:
         7b:97:97:d0:4c:71:a1:f9:d5:41:e0:49:09:d0:0a:cd:b6:0f:
         d2:2f:3e:ab:76:28:da:20:6a:40:c0:34:b9:64:46:a8:1b:78:
         e6:c4:c7:aa:a2:3e:e0:c6:58:d9:40:af:2b:ff:81:2a:79:3b:
         cd:a2:39:59:dc:91:b0:3e:da:ef:f0:5b:63:a7:d6:27:c0:b9:
         a8:6d:cf:69:6e:1c:73:e6:bc:e4:d6:83:ce:ed:b6:bd:e9:39:
         cf:5c:b6:85:c4:b4:dd:80:4c:3e:83:87:bc:f0:bd:85:4a:81:
         63:8d:5d:ba:cd:09:fa:2a:de:35:e6:93:95:1b:ca:28:66:82:
         60:d8:7d:57:14:9f:b6:a6:40:de:a8:2b:89:b2:98:00:b1:cf:
         14:98:89:e4:62:ee:16:ea:d2:dc:2f:4c:1b:ab:e8:52:04:05:
         d8:3e:22:fc
-----BEGIN CERTIFICATE-----
MIIEXTCCA0WgAwIBAgIBCjANBgkqhkiG9w0BAQsFADCBszELMAkGA1UEBhMCQ1ox
FzAVBgNVBAgMDkN6ZWNoIFJlcHVibGljMRswGQYDVQQHDBJLbGFzdGVyZWMgbmFk
IE9ocmkxDDAKBgNVBAoMA2xoczEXMBUGA1UECwwOaW50cmFuZXQubG9jYWwxIDAe
BgNVBAMMF0NlcnRpZmljYXRpb24gYXV0aG9yaXR5MSUwIwYJKoZIhvcNAQkBFhZy
YWRlay5rYWRuZXJAZ21haWwuY29tMB4XDTIyMDczMTIzMzIxOVoXDTIzMDczMTIz
MzIxOVowgbIxCzAJBgNVBAYTAkNaMRcwFQYDVQQIDA5DemVjaCBSZXB1YmxpYzEb
MBkGA1UEBwwSS2xhc3RlcmVjIG5hZCBPaHJpMQ8wDQYDVQQKDAZkb2NrZXIxFjAU
BgNVBAsMDXRyYWVmaWsubG9jYWwxHTAbBgNVBAMMFGRvY2tlci50cmFlZmlrLmxv
Y2FsMSUwIwYJKoZIhvcNAQkBFhZyYWRlay5rYWRuZXJAZ21haWwuY29tMIIBIjAN
BgkqhkiG9w0BAQEFAAOCAQ8AMIIBCgKCAQEAym/MPL8btaxTcjxZo4/zgSTU5/74
svCLrv6OWg75LQmSn+gvFoo/eZEZXEBPsBP75OKXJVXeYojqI1LByBM3QSuGOxWE
SzJpixdkHk8Qy7T3wlD4AMzXLTCEDRrGaxhW+ehIQq2NywtOWq4MqKJgDSHZOvLV
75Wm4soRVVFX5+/l22GeKiMIQCF7ACCy+Fgs4ftC/xpZjMSxFehvVUWfHCPWM82t
1dovPn2ASriKt5QPQtdQ19f6eYzldmoWFPk9G8Ty57IjLyPEfvUN7UNARsCtYd2X
sRgDPn+AxK4hSo4xeoHmz3G0H35J9mMV4M+CCM0NR0K8eIfsLb0eRBH2UQIDAQAB
o3sweTAJBgNVHRMEAjAAMCwGCWCGSAGG+EIBDQQfFh1PcGVuU1NMIEdlbmVyYXRl
ZCBDZXJ0aWZpY2F0ZTAdBgNVHQ4EFgQUNmQkEIQE/xjN9G9CmpcYgrtDpQ8wHwYD
VR0jBBgwFoAU2KC2lYZToSm7bHDo0CYdb5UECIgwDQYJKoZIhvcNAQELBQADggEB
ABRz0Qc+9y1k3B9PvCAquy2tIHYVRciJaIJW0DHmSgp5eZ5Q42kGwJJv9r3J/4kD
A1XI46UoYhFl3k61QzYQe1wTVU6nzRJ0B0zFDOeSmpD0DXYxa9bj9s8Ku3uXl9BM
caH51UHgSQnQCs22D9IvPqt2KNogakDANLlkRqgbeObEx6qiPuDGWNlAryv/gSp5
O82iOVnckbA+2u/wW2On1ifAuahtz2luHHPmvOTWg87ttr3pOc9ctoXEtN2ATD6D
h7zwvYVKgWONXbrNCfoq3jXmk5UbyihmgmDYfVcUn7amQN6oK4mymACxzxSYieRi
7hbq0twvTBur6FIEBdg+Ivw=
-----END CERTIFICATE-----
